target datalayout = "e-m:e-p270:32:32-p271:32:32-p272:64:64-i64:64-i128:128-f80:128-n8:16:32:64-S128"
target triple = "x86_64-pc-linux-gnu"

%struct.VVCFrameContext = type { ptr, [17 x %struct.VVCFrame], ptr, ptr, %struct.VVCFrameParamSets, ptr, i32, i32, ptr, %struct.VVCDSPContext, %struct.VideoDSPContext, ptr, i64, ptr, ptr, ptr, ptr, %struct.anon }
%struct.VVCFrame = type { ptr, ptr, ptr, ptr, ptr, ptr, i32, i32, i32, %struct.VVCWindow, i32, i32, ptr, ptr, i16, i8, ptr }
%struct.VVCWindow = type { i16, i16, i16, i16 }
%struct.VVCFrameParamSets = type { ptr, ptr, %struct.VVCPH, [8 x ptr], %struct.VVCLMCS, ptr }
%struct.VVCPH = type { ptr, ptr, i32, i32, i8, [3 x i16], i8, [3 x i16], %struct.PredWeightTable }
%struct.PredWeightTable = type { [2 x i8], [2 x i8], [2 x [2 x [15 x i8]]], [2 x [3 x [15 x i16]]], [2 x [3 x [15 x i16]]] }
%struct.VVCLMCS = type { i8, i8, %union.anon.0, %union.anon.0, [17 x i16], [16 x i16] }
%union.anon.0 = type { [4096 x i16] }
%struct.VVCDSPContext = type { %struct.VVCInterDSPContext, %struct.VVCIntraDSPContext, %struct.VVCItxDSPContext, %struct.VVCLMCSDSPContext, %struct.VVCLFDSPContext, %struct.VVCSAODSPContext, %struct.VVCALFDSPContext }
%struct.VVCInterDSPContext = type { [2 x [7 x [2 x [2 x ptr]]]], [2 x [7 x [2 x [2 x ptr]]]], [2 x [7 x [2 x [2 x ptr]]]], [2 x [7 x ptr]], [2 x [7 x ptr]], [2 x [7 x ptr]], ptr, ptr, ptr, ptr, ptr, ptr, ptr, ptr, ptr, ptr, ptr, [2 x [2 x ptr]] }
%struct.VVCIntraDSPContext = type { ptr, ptr, ptr, ptr, ptr, ptr, ptr, ptr, ptr, ptr }
%struct.VVCItxDSPContext = type { ptr, ptr, [3 x [6 x ptr]], ptr, ptr }
%struct.VVCLMCSDSPContext = type { ptr }
%struct.VVCLFDSPContext = type { [2 x ptr], [2 x ptr], [2 x ptr] }
%struct.VVCSAODSPContext = type { [9 x ptr], [9 x ptr], [2 x ptr] }
%struct.VVCALFDSPContext = type { [2 x ptr], ptr, ptr, ptr }
%struct.VideoDSPContext = type { ptr, ptr }
%struct.anon = type { ptr, ptr, ptr, ptr, [2 x ptr], [2 x ptr], [2 x ptr], [2 x ptr], [2 x ptr], [3 x ptr], ptr, ptr, [2 x ptr], ptr, ptr, [2 x ptr], ptr, ptr, ptr, [2 x ptr], ptr, [3 x ptr], ptr, [2 x ptr], [2 x ptr], [2 x ptr], [2 x [3 x ptr]], [2 x ptr], [2 x ptr], [3 x ptr], [3 x ptr], [3 x [2 x ptr]], [3 x [2 x ptr]], ptr, ptr, ptr, [3 x ptr], %struct.anon.1 }
%struct.anon.1 = type { i32, i32, i32, i32, i32, i32, i32, i32, i32, i32, i32, i32 }

; Function Attrs: cold nounwind optsize uwtable
define internal i32 @frame_context_init(ptr noundef %0, ptr noundef %1) #1 {
  %3 = alloca i32, align 4
  %4 = alloca ptr, align 8
  %5 = alloca ptr, align 8
  %6 = alloca i32, align 4
  %7 = alloca i32, align 4
  store ptr %0, ptr %4, align 8, !tbaa !4
  store ptr %1, ptr %5, align 8, !tbaa !27
  %8 = load ptr, ptr %5, align 8, !tbaa !27
  %9 = load ptr, ptr %4, align 8, !tbaa !4
  %10 = getelementptr inbounds nuw %struct.VVCFrameContext, ptr %9, i32 0, i32 0
  store ptr %8, ptr %10, align 8, !tbaa !174
  %11 = call ptr @av_frame_alloc()
  %12 = load ptr, ptr %4, align 8, !tbaa !4
  %13 = getelementptr inbounds nuw %struct.VVCFrameContext, ptr %12, i32 0, i32 3
  store ptr %11, ptr %13, align 8, !tbaa !175
  %14 = load ptr, ptr %4, align 8, !tbaa !4
  %15 = getelementptr inbounds nuw %struct.VVCFrameContext, ptr %14, i32 0, i32 3
  %16 = load ptr, ptr %15, align 8, !tbaa !175
  %17 = icmp ne ptr %16, null
  br i1 %17, label %19, label %18

18:                                               ; preds = %2
  store i32 -12, ptr %3, align 4
  br label %67

19:                                               ; preds = %2
  call void @llvm.lifetime.start.p0(i64 4, ptr %6) #9
  store i32 0, ptr %6, align 4, !tbaa !10
  br label %20

20:                                               ; preds = %43, %19
  %21 = load i32, ptr %6, align 4, !tbaa !10
  %22 = sext i32 %21 to i64
  %23 = icmp ult i64 %22, 17
  br i1 %23, label %25, label %24

24:                                               ; preds = %20
  store i32 2, ptr %7, align 4
  br label %46

25:                                               ; preds = %20
  %26 = call ptr @av_frame_alloc()
  %27 = load ptr, ptr %4, align 8, !tbaa !4
  %28 = getelementptr inbounds nuw %struct.VVCFrameContext, ptr %27, i32 0, i32 1
  %29 = load i32, ptr %6, align 4, !tbaa !10
  %30 = sext i32 %29 to i64
  %31 = getelementptr inbounds [17 x %struct.VVCFrame], ptr %28, i64 0, i64 %30
  %32 = getelementptr inbounds nuw %struct.VVCFrame, ptr %31, i32 0, i32 0
  store ptr %26, ptr %32, align 8, !tbaa !176
  %33 = load ptr, ptr %4, align 8, !tbaa !4
  %34 = getelementptr inbounds nuw %struct.VVCFrameContext, ptr %33, i32 0, i32 1
  %35 = load i32, ptr %6, align 4, !tbaa !10
  %36 = sext i32 %35 to i64
  %37 = getelementptr inbounds [17 x %struct.VVCFrame], ptr %34, i64 0, i64 %36
  %38 = getelementptr inbounds nuw %struct.VVCFrame, ptr %37, i32 0, i32 0
  %39 = load ptr, ptr %38, align 8, !tbaa !176
  %40 = icmp ne ptr %39, null
  br i1 %40, label %42, label %41

41:                                               ; preds = %25
  store i32 -12, ptr %3, align 4
  store i32 1, ptr %7, align 4
  br label %46

42:                                               ; preds = %25
  br label %43

43:                                               ; preds = %42
  %44 = load i32, ptr %6, align 4, !tbaa !10
  %45 = add nsw i32 %44, 1
  store i32 %45, ptr %6, align 4, !tbaa !10
  br label %20, !llvm.loop !182

46:                                               ; preds = %41, %24
  call void @llvm.lifetime.end.p0(i64 4, ptr %6) #9
  %47 = load i32, ptr %7, align 4
  switch i32 %47, label %69 [
    i32 2, label %48
    i32 1, label %67
  ]

48:                                               ; preds = %46
  %49 = call ptr @av_refstruct_pool_alloc(i64 noundef 784, i32 noundef 0)
  %50 = load ptr, ptr %4, align 8, !tbaa !4
  %51 = getelementptr inbounds nuw %struct.VVCFrameContext, ptr %50, i32 0, i32 15
  store ptr %49, ptr %51, align 8, !tbaa !183
  %52 = load ptr, ptr %4, align 8, !tbaa !4
  %53 = getelementptr inbounds nuw %struct.VVCFrameContext, ptr %52, i32 0, i32 15
  %54 = load ptr, ptr %53, align 8, !tbaa !183
  %55 = icmp ne ptr %54, null
  br i1 %55, label %57, label %56

56:                                               ; preds = %48
  store i32 -12, ptr %3, align 4
  br label %67

57:                                               ; preds = %48
  %58 = call ptr @av_refstruct_pool_alloc(i64 noundef 248, i32 noundef 0)
  %59 = load ptr, ptr %4, align 8, !tbaa !4
  %60 = getelementptr inbounds nuw %struct.VVCFrameContext, ptr %59, i32 0, i32 16
  store ptr %58, ptr %60, align 8, !tbaa !184
  %61 = load ptr, ptr %4, align 8, !tbaa !4
  %62 = getelementptr inbounds nuw %struct.VVCFrameContext, ptr %61, i32 0, i32 16
  %63 = load ptr, ptr %62, align 8, !tbaa !184
  %64 = icmp ne ptr %63, null
  br i1 %64, label %66, label %65

65:                                               ; preds = %57
  store i32 -12, ptr %3, align 4
  br label %67

66:                                               ; preds = %57
  store i32 0, ptr %3, align 4
  br label %67

67:                                               ; preds = %66, %65, %56, %46, %18
  %68 = load i32, ptr %3, align 4
  ret i32 %68

69:                                               ; preds = %46
  unreachable
}