; Function Attrs: cold nounwind optsize uwtable
define internal fastcc range(i32 -12, 1) i32 @frame_context_init(ptr noundef writeonly captures(none) initializes((0, 8), (1920, 1928)) %0, ptr noundef %1) unnamed_addr #1 {
  store ptr %1, ptr %0, align 8, !tbaa !120
  %3 = tail call ptr @av_frame_alloc() #10
  %4 = getelementptr inbounds nuw i8, ptr %0, i64 1920
  store ptr %3, ptr %4, align 8, !tbaa !64
  %.not = icmp eq ptr %3, null
  br i1 %.not, label %.loopexit, label %.preheader

.preheader:                                       ; preds = %2
  %5 = getelementptr inbounds nuw i8, ptr %0, i64 8
  br label %7

6:                                                ; preds = %7
  %indvars.iv.next = add nuw nsw i64 %indvars.iv, 1
  %exitcond.not = icmp eq i64 %indvars.iv.next, 17
  br i1 %exitcond.not, label %10, label %7, !llvm.loop !289

7:                                                ; preds = %.preheader, %6
  %indvars.iv = phi i64 [ 0, %.preheader ], [ %indvars.iv.next, %6 ]
  %8 = tail call ptr @av_frame_alloc() #10
  %9 = getelementptr inbounds nuw [17 x %struct.VVCFrame], ptr %5, i64 0, i64 %indvars.iv
  store ptr %8, ptr %9, align 8, !tbaa !135
  %.not18 = icmp eq ptr %8, null
  br i1 %.not18, label %.loopexit, label %6

10:                                               ; preds = %6
  %11 = tail call ptr @av_refstruct_pool_alloc(i64 noundef 784, i32 noundef 0) #10
  %12 = getelementptr inbounds nuw i8, ptr %0, i64 21320
  store ptr %11, ptr %12, align 8, !tbaa !290
  %.not19 = icmp eq ptr %11, null
  br i1 %.not19, label %.loopexit, label %13

13:                                               ; preds = %10
  %14 = tail call ptr @av_refstruct_pool_alloc(i64 noundef 248, i32 noundef 0) #10
  %15 = getelementptr inbounds nuw i8, ptr %0, i64 21328
  store ptr %14, ptr %15, align 8, !tbaa !291
  %.not20 = icmp eq ptr %14, null
  %. = select i1 %.not20, i32 -12, i32 0
  br label %.loopexit

.loopexit:                                        ; preds = %7, %13, %10, %2
  %.016 = phi i32 [ -12, %2 ], [ -12, %10 ], [ %., %13 ], [ -12, %7 ]
  ret i32 %.016
}